; Function Attrs: mustprogress nofree norecurse nounwind uwtable
define internal noundef i32 @_ZL6errmsgiPKcz(i32 noundef returned %0, ptr nocapture noundef readonly %1, ...) unnamed_addr #15 {
  %3 = alloca [1 x %struct.__va_list_tag], align 16
  call void @llvm.va_start.p0(ptr nonnull %3)
  %4 = load ptr, ptr @stdout, align 8
  %5 = call i32 @vfprintf(ptr noundef %4, ptr noundef %1, ptr noundef nonnull %3) #26
  call void @llvm.va_end.p0(ptr nonnull %3)
  %.not = icmp eq i32 %0, 0
  br i1 %.not, label %8, label %6

6:                                                ; preds = %2
  %7 = tail call ptr @__errno_location() #31
  store i32 %0, ptr %7, align 4
  br label %8

8:                                                ; preds = %6, %2
  ret i32 %0
}